; Function Attrs: alwaysinline norecurse nounwind uwtable
define internal void @_ZNK8LightGBM21RegressionPoissonLoss12GetGradientsEPKdPfS3_.omp_outlined(ptr noalias noundef readonly captures(none) %0, ptr noalias readnone captures(none) %1, ptr noundef readonly captures(none) %2, ptr noundef nonnull readonly align 8 captures(none) dereferenceable(8) %3, ptr noundef nonnull readonly align 8 captures(none) dereferenceable(8) %4, ptr noundef nonnull readonly align 8 captures(none) dereferenceable(8) %5, ptr noundef nonnull readonly align 8 captures(none) dereferenceable(8) %6) #14 {
  %8 = alloca i32, align 4
  %9 = alloca i32, align 4
  %10 = alloca i32, align 4
  %11 = alloca i32, align 4
  %12 = getelementptr inbounds nuw i8, ptr %2, i64 12
  %13 = load i32, ptr %12, align 4, !tbaa !147
  %14 = icmp sgt i32 %13, 0
  br i1 %14, label %15, label %43

15:                                               ; preds = %7
  %16 = add nsw i32 %13, -1
  call void @llvm.lifetime.start.p0(i64 4, ptr nonnull %8) #15
  store i32 0, ptr %8, align 4, !tbaa !127
  call void @llvm.lifetime.start.p0(i64 4, ptr nonnull %9) #15
  store i32 %16, ptr %9, align 4, !tbaa !127
  call void @llvm.lifetime.start.p0(i64 4, ptr nonnull %10) #15
  store i32 1, ptr %10, align 4, !tbaa !127
  call void @llvm.lifetime.start.p0(i64 4, ptr nonnull %11) #15
  store i32 0, ptr %11, align 4, !tbaa !127
  %17 = load i32, ptr %0, align 4, !tbaa !127
  call void @__kmpc_for_static_init_4(ptr nonnull @1, i32 %17, i32 34, ptr nonnull %11, ptr nonnull %8, ptr nonnull %9, ptr nonnull %10, i32 1, i32 1)
  %18 = load i32, ptr %9, align 4, !tbaa !127
  %19 = call i32 @llvm.smin.i32(i32 %18, i32 %16)
  store i32 %19, ptr %9, align 4, !tbaa !127
  %20 = load i32, ptr %8, align 4, !tbaa !127
  %.not20 = icmp sgt i32 %20, %19
  br i1 %.not20, label %._crit_edge, label %.lr.ph

.lr.ph:                                           ; preds = %15
  %21 = load ptr, ptr %3, align 8, !tbaa !152
  %22 = getelementptr inbounds nuw i8, ptr %2, i64 16
  %23 = load ptr, ptr %22, align 8, !tbaa !148
  %24 = load ptr, ptr %4, align 8, !tbaa !150
  %25 = load double, ptr %6, align 8, !tbaa !153
  %26 = load ptr, ptr %5, align 8, !tbaa !150
  %27 = sext i32 %20 to i64
  br label %28

28:                                               ; preds = %.lr.ph, %28
  %indvars.iv = phi i64 [ %27, %.lr.ph ], [ %indvars.iv.next, %28 ]
  %29 = getelementptr inbounds double, ptr %21, i64 %indvars.iv
  %30 = load double, ptr %29, align 8, !tbaa !153
  %31 = call double @exp(double noundef %30) #15, !tbaa !127
  %32 = getelementptr inbounds float, ptr %23, i64 %indvars.iv
  %33 = load float, ptr %32, align 4, !tbaa !175
  %34 = fpext float %33 to double
  %35 = fsub double %31, %34
  %36 = fptrunc double %35 to float
  %37 = getelementptr inbounds float, ptr %24, i64 %indvars.iv
  store float %36, ptr %37, align 4, !tbaa !175
  %38 = fmul double %31, %25
  %39 = fptrunc double %38 to float
  %40 = getelementptr inbounds float, ptr %26, i64 %indvars.iv
  store float %39, ptr %40, align 4, !tbaa !175
  %indvars.iv.next = add nsw i64 %indvars.iv, 1
  %41 = load i32, ptr %9, align 4, !tbaa !127
  %42 = sext i32 %41 to i64
  %.not.not = icmp slt i64 %indvars.iv, %42
  br i1 %.not.not, label %28, label %._crit_edge

._crit_edge:                                      ; preds = %28, %15
  call void @__kmpc_for_static_fini(ptr nonnull @1, i32 %17)
  call void @llvm.lifetime.end.p0(i64 4, ptr nonnull %11) #15
  call void @llvm.lifetime.end.p0(i64 4, ptr nonnull %10) #15
  call void @llvm.lifetime.end.p0(i64 4, ptr nonnull %9) #15
  call void @llvm.lifetime.end.p0(i64 4, ptr nonnull %8) #15
  br label %43

43:                                               ; preds = %._crit_edge, %7
  ret void
}